; Function Attrs: mustprogress nofree norecurse nosync nounwind willreturn memory(argmem: write) uwtable
define hidden void @nghttp2_frame_hd_init(ptr noundef writeonly captures(none) initializes((0, 15)) %0, i64 noundef %1, i8 noundef zeroext %2, i8 noundef zeroext %3, i32 noundef %4) local_unnamed_addr #2 {
  store i64 %1, ptr %0, align 8, !tbaa !3
  %6 = getelementptr inbounds nuw i8, ptr %0, i64 12
  store i8 %2, ptr %6, align 4, !tbaa !9
  %7 = getelementptr inbounds nuw i8, ptr %0, i64 13
  store i8 %3, ptr %7, align 1, !tbaa !11
  %8 = getelementptr inbounds nuw i8, ptr %0, i64 8
  store i32 %4, ptr %8, align 8, !tbaa !12
  %9 = getelementptr inbounds nuw i8, ptr %0, i64 14
  store i8 0, ptr %9, align 2, !tbaa !13
  ret void
}